target datalayout = "e-m:e-p270:32:32-p271:32:32-p272:64:64-i64:64-i128:128-f80:128-n8:16:32:64-S128"
target triple = "x86_64-pc-linux-gnu"

%struct._zval_struct = type { %union._zend_value, %union.anon, %union.anon.2 }
%union._zend_value = type { i64 }
%union.anon = type { i32 }
%union.anon.2 = type { i32 }
%struct._zend_executor_globals = type { %struct._zval_struct, %struct._zval_struct, [32 x ptr], ptr, ptr, %struct._zend_array, %struct._zend_array, ptr, i32, i32, ptr, ptr, ptr, ptr, ptr, ptr, i64, ptr, ptr, i32, i32, i64, i32, i32, i32, i8, i8, %struct.zend_atomic_bool_s, %struct.zend_atomic_bool_s, ptr, i64, ptr, ptr, %struct._zend_array, %struct._zend_array, i32, i8, %struct._zval_struct, %struct._zval_struct, %struct._zend_stack, %struct._zend_stack, %struct._zend_stack, ptr, i32, i32, i64, ptr, ptr, ptr, %struct._zend_objects_store, ptr, ptr, ptr, [3 x %struct._zend_op], ptr, i8, i8, i64, i32, i32, ptr, [16 x %struct._HashTableIterator], ptr, %union._zend_function, %struct._zend_op, %struct._zend_array, i64, %struct.zend_get_gc_buffer, ptr, ptr, ptr, i64, i8, i32, ptr, ptr, i64, %struct._zend_call_stack, i64, i64, [6 x ptr] }
%struct.zend_atomic_bool_s = type { i8 }
%struct._zend_stack = type { i32, i32, i32, ptr }
%struct._zend_objects_store = type { ptr, i32, i32, i32 }
%struct._HashTableIterator = type { ptr, i32, i32 }
%union._zend_function = type { %struct._zend_op_array }
%struct._zend_op_array = type { i8, [3 x i8], i32, ptr, ptr, ptr, i32, i32, ptr, ptr, ptr, ptr, i32, i32, i32, i32, ptr, ptr, ptr, ptr, ptr, i32, i32, ptr, ptr, ptr, i32, i32, i32, i32, ptr, ptr, [6 x ptr] }
%struct._zend_op = type { ptr, %union._znode_op, %union._znode_op, %union._znode_op, i32, i32, i8, i8, i8, i8 }
%union._znode_op = type { i32 }
%struct._zend_array = type { %struct._zend_refcounted_h, %union.anon.4, i32, %union.anon.6, i32, i32, i32, i32, i64, ptr }
%struct._zend_refcounted_h = type { i32, %union.anon.3 }
%union.anon.3 = type { i32 }
%union.anon.4 = type { i32 }
%union.anon.6 = type { ptr }
%struct.zend_get_gc_buffer = type { ptr, ptr, ptr }
%struct._zend_call_stack = type { ptr, i64 }
%struct.anon.7 = type { i8, [3 x i8], i32, ptr, ptr, ptr, i32, i32, ptr, ptr, ptr, ptr, i32 }
%struct._zend_execute_data = type { ptr, ptr, ptr, ptr, %struct._zval_struct, ptr, ptr, ptr, ptr }
%struct._zend_string = type { %struct._zend_refcounted_h, i64, i64, [1 x i8] }

@executor_globals = external global %struct._zend_executor_globals, align 8

; Function Attrs: nounwind uwtable
define i32 @zend_set_local_var_str(ptr noundef %0, i64 noundef %1, ptr noundef %2, i1 noundef zeroext %3) #0 {
  %5 = alloca ptr, align 8
  %6 = alloca ptr, align 8
  %7 = alloca i64, align 8
  %8 = alloca i32, align 4
  %9 = alloca ptr, align 8
  %10 = alloca i64, align 8
  %11 = alloca ptr, align 8
  %12 = alloca i8, align 1
  %13 = alloca ptr, align 8
  %14 = alloca i64, align 8
  %15 = alloca ptr, align 8
  %16 = alloca ptr, align 8
  %17 = alloca ptr, align 8
  %18 = alloca ptr, align 8
  %19 = alloca ptr, align 8
  %20 = alloca ptr, align 8
  %21 = alloca ptr, align 8
  %22 = alloca i32, align 4
  %23 = alloca ptr, align 8
  store ptr %0, ptr %9, align 8
  store i64 %1, ptr %10, align 8
  store ptr %2, ptr %11, align 8
  %24 = zext i1 %3 to i8
  store i8 %24, ptr %12, align 1
  %25 = load ptr, ptr getelementptr inbounds (%struct._zend_executor_globals, ptr @executor_globals, i32 0, i32 17), align 8
  store ptr %25, ptr %13, align 8
  br label %26

26:                                               ; preds = %47, %4
  %27 = load ptr, ptr %13, align 8
  %28 = icmp ne ptr %27, null
  br i1 %28, label %29, label %45

29:                                               ; preds = %26
  %30 = load ptr, ptr %13, align 8
  %31 = getelementptr inbounds %struct._zend_execute_data, ptr %30, i32 0, i32 3
  %32 = load ptr, ptr %31, align 8
  %33 = icmp ne ptr %32, null
  br i1 %33, label %34, label %43

34:                                               ; preds = %29
  %35 = load ptr, ptr %13, align 8
  %36 = getelementptr inbounds %struct._zend_execute_data, ptr %35, i32 0, i32 3
  %37 = load ptr, ptr %36, align 8
  %38 = getelementptr inbounds %struct.anon.7, ptr %37, i32 0, i32 0
  %39 = load i8, ptr %38, align 8
  %40 = zext i8 %39 to i32
  %41 = icmp ne i32 %40, 1
  %42 = xor i1 %41, true
  br label %43

43:                                               ; preds = %34, %29
  %44 = phi i1 [ true, %29 ], [ %42, %34 ]
  br label %45

45:                                               ; preds = %43, %26
  %46 = phi i1 [ false, %26 ], [ %44, %43 ]
  br i1 %46, label %47, label %51

47:                                               ; preds = %45
  %48 = load ptr, ptr %13, align 8
  %49 = getelementptr inbounds %struct._zend_execute_data, ptr %48, i32 0, i32 5
  %50 = load ptr, ptr %49, align 8
  store ptr %50, ptr %13, align 8
  br label %26

51:                                               ; preds = %45
  %52 = load ptr, ptr %13, align 8
  %53 = icmp ne ptr %52, null
  br i1 %53, label %54, label %179

54:                                               ; preds = %51
  %55 = load ptr, ptr %13, align 8
  %56 = getelementptr inbounds %struct._zend_execute_data, ptr %55, i32 0, i32 4
  %57 = getelementptr inbounds %struct._zval_struct, ptr %56, i32 0, i32 1
  %58 = load i32, ptr %57, align 8
  %59 = and i32 %58, 1048576
  %60 = icmp ne i32 %59, 0
  br i1 %60, label %170, label %61

61:                                               ; preds = %54
  %62 = load ptr, ptr %9, align 8
  %63 = load i64, ptr %10, align 8
  %64 = call i64 @zend_hash_func(ptr noundef %62, i64 noundef %63)
  store i64 %64, ptr %14, align 8
  %65 = load ptr, ptr %13, align 8
  %66 = getelementptr inbounds %struct._zend_execute_data, ptr %65, i32 0, i32 3
  %67 = load ptr, ptr %66, align 8
  store ptr %67, ptr %15, align 8
  %68 = load ptr, ptr %15, align 8
  %69 = getelementptr inbounds %struct._zend_op_array, ptr %68, i32 0, i32 14
  %70 = load i32, ptr %69, align 8
  %71 = icmp ne i32 %70, 0
  %72 = xor i1 %71, true
  %73 = xor i1 %72, true
  %74 = zext i1 %73 to i32
  %75 = sext i32 %74 to i64
  %76 = icmp ne i64 %75, 0
  br i1 %76, label %77, label %155

77:                                               ; preds = %61
  %78 = load ptr, ptr %15, align 8
  %79 = getelementptr inbounds %struct._zend_op_array, ptr %78, i32 0, i32 19
  %80 = load ptr, ptr %79, align 8
  store ptr %80, ptr %16, align 8
  %81 = load ptr, ptr %16, align 8
  %82 = load ptr, ptr %15, align 8
  %83 = getelementptr inbounds %struct._zend_op_array, ptr %82, i32 0, i32 14
  %84 = load i32, ptr %83, align 8
  %85 = sext i32 %84 to i64
  %86 = getelementptr inbounds ptr, ptr %81, i64 %85
  store ptr %86, ptr %17, align 8
  br label %87

87:                                               ; preds = %150, %77
  %88 = load ptr, ptr %16, align 8
  %89 = load ptr, ptr %88, align 8
  %90 = getelementptr inbounds %struct._zend_string, ptr %89, i32 0, i32 1
  %91 = load i64, ptr %90, align 8
  %92 = load i64, ptr %14, align 8
  %93 = icmp eq i64 %91, %92
  br i1 %93, label %94, label %147

94:                                               ; preds = %87
  %95 = load ptr, ptr %16, align 8
  %96 = load ptr, ptr %95, align 8
  %97 = load ptr, ptr %9, align 8
  %98 = load i64, ptr %10, align 8
  store ptr %96, ptr %5, align 8
  store ptr %97, ptr %6, align 8
  store i64 %98, ptr %7, align 8
  %99 = load ptr, ptr %5, align 8
  %100 = getelementptr inbounds %struct._zend_string, ptr %99, i32 0, i32 2
  %101 = load i64, ptr %100, align 8
  %102 = load i64, ptr %7, align 8
  %103 = icmp eq i64 %101, %102
  br i1 %103, label %104, label %112

104:                                              ; preds = %94
  %105 = load ptr, ptr %5, align 8
  %106 = getelementptr inbounds %struct._zend_string, ptr %105, i32 0, i32 3
  %107 = load ptr, ptr %6, align 8
  %108 = load i64, ptr %7, align 8
  %109 = call i32 @memcmp(ptr noundef %106, ptr noundef %107, i64 noundef %108) #17
  %110 = icmp ne i32 %109, 0
  %111 = xor i1 %110, true
  br label %112

112:                                              ; preds = %104, %94
  %113 = phi i1 [ false, %94 ], [ %111, %104 ]
  br i1 %113, label %114, label %147

114:                                              ; preds = %112
  %115 = load ptr, ptr %13, align 8
  %116 = load ptr, ptr %16, align 8
  %117 = load ptr, ptr %15, align 8
  %118 = getelementptr inbounds %struct._zend_op_array, ptr %117, i32 0, i32 19
  %119 = load ptr, ptr %118, align 8
  %120 = ptrtoint ptr %116 to i64
  %121 = ptrtoint ptr %119 to i64
  %122 = sub i64 %120, %121
  %123 = sdiv exact i64 %122, 8
  %124 = trunc i64 %123 to i32
  %125 = add nsw i32 5, %124
  %126 = sext i32 %125 to i64
  %127 = getelementptr inbounds %struct._zval_struct, ptr %115, i64 %126
  store ptr %127, ptr %18, align 8
  %128 = load ptr, ptr %18, align 8
  call void @zval_ptr_dtor(ptr noundef %128)
  br label %129

129:                                              ; preds = %114
  %130 = load ptr, ptr %18, align 8
  store ptr %130, ptr %19, align 8
  %131 = load ptr, ptr %11, align 8
  store ptr %131, ptr %20, align 8
  %132 = load ptr, ptr %20, align 8
  %133 = getelementptr inbounds %struct._zval_struct, ptr %132, i32 0, i32 0
  %134 = load ptr, ptr %133, align 8
  store ptr %134, ptr %21, align 8
  %135 = load ptr, ptr %20, align 8
  %136 = getelementptr inbounds %struct._zval_struct, ptr %135, i32 0, i32 1
  %137 = load i32, ptr %136, align 8
  store i32 %137, ptr %22, align 4
  br label %138

138:                                              ; preds = %129
  %139 = load ptr, ptr %21, align 8
  %140 = load ptr, ptr %19, align 8
  %141 = getelementptr inbounds %struct._zval_struct, ptr %140, i32 0, i32 0
  store ptr %139, ptr %141, align 8
  %142 = load i32, ptr %22, align 4
  %143 = load ptr, ptr %19, align 8
  %144 = getelementptr inbounds %struct._zval_struct, ptr %143, i32 0, i32 1
  store i32 %142, ptr %144, align 8
  br label %145

145:                                              ; preds = %138
  br label %146

146:                                              ; preds = %145
  store i32 0, ptr %8, align 4
  br label %180

147:                                              ; preds = %112, %87
  %148 = load ptr, ptr %16, align 8
  %149 = getelementptr inbounds ptr, ptr %148, i32 1
  store ptr %149, ptr %16, align 8
  br label %150

150:                                              ; preds = %147
  %151 = load ptr, ptr %16, align 8
  %152 = load ptr, ptr %17, align 8
  %153 = icmp ne ptr %151, %152
  br i1 %153, label %87, label %154

154:                                              ; preds = %150
  br label %155

155:                                              ; preds = %154, %61
  %156 = load i8, ptr %12, align 1
  %157 = trunc i8 %156 to i1
  br i1 %157, label %158, label %169

158:                                              ; preds = %155
  %159 = call ptr @zend_rebuild_symbol_table()
  store ptr %159, ptr %23, align 8
  %160 = load ptr, ptr %23, align 8
  %161 = icmp ne ptr %160, null
  br i1 %161, label %162, label %168

162:                                              ; preds = %158
  %163 = load ptr, ptr %23, align 8
  %164 = load ptr, ptr %9, align 8
  %165 = load i64, ptr %10, align 8
  %166 = load ptr, ptr %11, align 8
  %167 = call ptr @zend_hash_str_update(ptr noundef %163, ptr noundef %164, i64 noundef %165, ptr noundef %166)
  store i32 0, ptr %8, align 4
  br label %180

168:                                              ; preds = %158
  br label %169

169:                                              ; preds = %168, %155
  br label %178

170:                                              ; preds = %54
  %171 = load ptr, ptr %13, align 8
  %172 = getelementptr inbounds %struct._zend_execute_data, ptr %171, i32 0, i32 6
  %173 = load ptr, ptr %172, align 8
  %174 = load ptr, ptr %9, align 8
  %175 = load i64, ptr %10, align 8
  %176 = load ptr, ptr %11, align 8
  %177 = call ptr @zend_hash_str_update_ind(ptr noundef %173, ptr noundef %174, i64 noundef %175, ptr noundef %176)
  store i32 0, ptr %8, align 4
  br label %180

178:                                              ; preds = %169
  br label %179

179:                                              ; preds = %178, %51
  store i32 -1, ptr %8, align 4
  br label %180

180:                                              ; preds = %179, %170, %162, %146
  %181 = load i32, ptr %8, align 4
  ret i32 %181
}