; Function Attrs: nounwind uwtable
define noundef i32 @zend_set_local_var_str(ptr noundef %0, i64 noundef %1, ptr noundef %2, i1 noundef zeroext %3) local_unnamed_addr #0 {
  %.05269 = load ptr, ptr getelementptr inbounds (%struct._zend_executor_globals, ptr @executor_globals, i64 0, i32 17), align 8
  %.not70 = icmp eq ptr %.05269, null
  br i1 %.not70, label %.critedge66, label %.lr.ph

.lr.ph:                                           ; preds = %4, %.critedge2
  %.05271 = phi ptr [ %.052, %.critedge2 ], [ %.05269, %4 ]
  %5 = getelementptr inbounds i8, ptr %.05271, i64 24
  %6 = load ptr, ptr %5, align 8
  %.not59 = icmp eq ptr %6, null
  br i1 %.not59, label %.critedge2, label %7

7:                                                ; preds = %.lr.ph
  %8 = load i8, ptr %6, align 8
  %.not60 = icmp eq i8 %8, 1
  br i1 %.not60, label %.critedge2, label %.critedge

.critedge2:                                       ; preds = %.lr.ph, %7
  %9 = getelementptr inbounds i8, ptr %.05271, i64 48
  %.052 = load ptr, ptr %9, align 8
  %.not = icmp eq ptr %.052, null
  br i1 %.not, label %.critedge66, label %.lr.ph

.critedge:                                        ; preds = %7
  %10 = getelementptr inbounds i8, ptr %.05271, i64 40
  %11 = load i32, ptr %10, align 8
  %12 = and i32 %11, 1048576
  %.not61 = icmp eq i32 %12, 0
  br i1 %.not61, label %13, label %51

13:                                               ; preds = %.critedge
  %14 = getelementptr inbounds i8, ptr %.05271, i64 24
  %15 = tail call i64 @zend_hash_func(ptr noundef %0, i64 noundef %1) #24
  %16 = load ptr, ptr %14, align 8
  %17 = getelementptr inbounds i8, ptr %16, i64 80
  %18 = load i32, ptr %17, align 8
  %.not62 = icmp eq i32 %18, 0
  br i1 %.not62, label %.loopexit, label %19

19:                                               ; preds = %13
  %20 = getelementptr inbounds i8, ptr %16, i64 112
  %21 = load ptr, ptr %20, align 8
  %22 = sext i32 %18 to i64
  %23 = getelementptr inbounds ptr, ptr %21, i64 %22
  br label %24

24:                                               ; preds = %.critedge4, %19
  %.053 = phi ptr [ %21, %19 ], [ %46, %.critedge4 ]
  %25 = load ptr, ptr %.053, align 8
  %26 = getelementptr inbounds i8, ptr %25, i64 8
  %27 = load i64, ptr %26, align 8
  %28 = icmp eq i64 %27, %15
  br i1 %28, label %29, label %.critedge4

29:                                               ; preds = %24
  %30 = getelementptr inbounds i8, ptr %25, i64 16
  %31 = load i64, ptr %30, align 8
  %32 = icmp eq i64 %31, %1
  br i1 %32, label %33, label %.critedge4

33:                                               ; preds = %29
  %34 = getelementptr inbounds i8, ptr %25, i64 24
  %bcmp = tail call i32 @bcmp(ptr nonnull %34, ptr %0, i64 %1)
  %.not63 = icmp eq i32 %bcmp, 0
  br i1 %.not63, label %35, label %.critedge4

35:                                               ; preds = %33
  %36 = ptrtoint ptr %.053 to i64
  %37 = ptrtoint ptr %21 to i64
  %38 = sub i64 %36, %37
  %39 = shl i64 %38, 29
  %sext = add i64 %39, 21474836480
  %40 = ashr i64 %sext, 32
  %41 = getelementptr inbounds %struct._zval_struct, ptr %.05271, i64 %40
  tail call void @zval_ptr_dtor(ptr noundef nonnull %41) #24
  %42 = load ptr, ptr %2, align 8
  %43 = getelementptr inbounds i8, ptr %2, i64 8
  %44 = load i32, ptr %43, align 8
  store ptr %42, ptr %41, align 8
  %45 = getelementptr inbounds i8, ptr %41, i64 8
  store i32 %44, ptr %45, align 8
  br label %.critedge66

.critedge4:                                       ; preds = %29, %33, %24
  %46 = getelementptr inbounds i8, ptr %.053, i64 8
  %.not64 = icmp eq ptr %46, %23
  br i1 %.not64, label %.loopexit, label %24

.loopexit:                                        ; preds = %.critedge4, %13
  br i1 %3, label %47, label %.critedge66

47:                                               ; preds = %.loopexit
  %48 = tail call ptr @zend_rebuild_symbol_table()
  %.not65 = icmp eq ptr %48, null
  br i1 %.not65, label %.critedge66, label %49

49:                                               ; preds = %47
  %50 = tail call ptr @zend_hash_str_update(ptr noundef nonnull %48, ptr noundef %0, i64 noundef %1, ptr noundef %2) #24
  br label %.critedge66

51:                                               ; preds = %.critedge
  %52 = getelementptr inbounds i8, ptr %.05271, i64 56
  %53 = load ptr, ptr %52, align 8
  %54 = tail call ptr @zend_hash_str_update_ind(ptr noundef %53, ptr noundef %0, i64 noundef %1, ptr noundef %2) #24
  br label %.critedge66

.critedge66:                                      ; preds = %.critedge2, %4, %.loopexit, %47, %51, %49, %35
  %.0 = phi i32 [ 0, %51 ], [ 0, %35 ], [ 0, %49 ], [ -1, %47 ], [ -1, %.loopexit ], [ -1, %4 ], [ -1, %.critedge2 ]
  ret i32 %.0
}